; Function Attrs: mustprogress nofree norecurse nosync nounwind memory(readwrite, inaccessiblemem: none) uwtable
define void @_ZN18ForeignLambdaTerms15addConstantDhdlE34FreeEnergyPerturbationCouplingTyped(ptr nocapture noundef nonnull readonly align 8 dereferenceable(65) %0, i32 noundef %1, double noundef %2) local_unnamed_addr #10 align 2 {
  %4 = getelementptr inbounds i8, ptr %0, i64 40
  %5 = load ptr, ptr %4, align 8
  %6 = getelementptr inbounds i8, ptr %0, i64 48
  %7 = load ptr, ptr %6, align 8
  %.not8 = icmp eq ptr %5, %7
  br i1 %.not8, label %._crit_edge, label %.lr.ph

.lr.ph:                                           ; preds = %3
  %8 = sext i32 %1 to i64
  br label %9

9:                                                ; preds = %.lr.ph, %9
  %.sroa.05.09 = phi ptr [ %5, %.lr.ph ], [ %13, %9 ]
  %10 = getelementptr inbounds [7 x double], ptr %.sroa.05.09, i64 0, i64 %8
  %11 = load double, ptr %10, align 8
  %12 = fadd double %11, %2
  store double %12, ptr %10, align 8
  %13 = getelementptr inbounds i8, ptr %.sroa.05.09, i64 56
  %.not = icmp eq ptr %13, %7
  br i1 %.not, label %._crit_edge, label %9

._crit_edge:                                      ; preds = %9, %3
  ret void
}